target datalayout = "e-m:e-p270:32:32-p271:32:32-p272:64:64-i64:64-i128:128-f80:128-n8:16:32:64-S128"
target triple = "x86_64-pc-linux-gnu"

%struct.darktable_t = type { %struct.dt_codepath_t, i32, i32, ptr, ptr, ptr, ptr, ptr, ptr, ptr, ptr, ptr, ptr, ptr, ptr, ptr, ptr, ptr, ptr, ptr, ptr, ptr, ptr, ptr, ptr, ptr, ptr, ptr, ptr, ptr, [64 x %struct.dt_pthread_mutex_t], %struct.dt_pthread_mutex_t, %struct.dt_pthread_mutex_t, %struct.dt_pthread_mutex_t, %struct.dt_pthread_mutex_t, %struct.dt_pthread_mutex_t, ptr, ptr, ptr, ptr, ptr, ptr, ptr, ptr, ptr, ptr, ptr, ptr, ptr, %struct.dt_lua_state_t, ptr, double, ptr, i32, [47 x i32], i32, i32, ptr, ptr, %struct.dt_sys_resources_t, %struct.dt_backthumb_t, %struct.dt_gimp_t }
%struct.dt_codepath_t = type { i8, [3 x i8] }
%struct.dt_pthread_mutex_t = type { %union.pthread_mutex_t }
%union.pthread_mutex_t = type { %struct.__pthread_mutex_s }
%struct.__pthread_mutex_s = type { i32, i32, i32, i32, i32, i16, i16, %struct.__pthread_internal_list }
%struct.__pthread_internal_list = type { ptr, ptr }
%struct.dt_lua_state_t = type { i32 }
%struct.dt_sys_resources_t = type { i64, i64, ptr, ptr, i32 }
%struct.dt_backthumb_t = type { double, double, i32, i32, i32, i32 }
%struct.dt_gimp_t = type { i32, ptr, ptr, i32, i32 }
%struct._color_harmony_t = type { i32, i32, i32 }

@darktable = external global %struct.darktable_t, align 8
@.str = private unnamed_addr constant [41 x i8] c"[sql] %s:%d, function %s(): prepare \22%s\22\00", align 1
@.str.1 = private unnamed_addr constant [124 x i8] c"generated/home/dtcxzyw/WorkSpace/Projects/compilers/llvm-opt-benchmark/bench/darktable/darktable/src/common/color_harmony.c\00", align 1
@__FUNCTION__.dt_color_harmony_set = private unnamed_addr constant [21 x i8] c"dt_color_harmony_set\00", align 1
@.str.2 = private unnamed_addr constant [48 x i8] c"DELETE FROM main.harmony_guide WHERE imgid = ?1\00", align 1
@stderr = external global ptr, align 8
@.str.3 = private unnamed_addr constant [53 x i8] c"sqlite3 error: %s:%d, function %s(), query \22%s\22: %s\0A\00", align 1
@.str.4 = private unnamed_addr constant [97 x i8] c"INSERT OR REPLACE INTO main.harmony_guide (imgid, type, rotation, width) VALUES (?1, ?2, ?3, ?4)\00", align 1
@.str.5 = private unnamed_addr constant [41 x i8] c"sqlite3 error: %s:%d, function %s(): %s\0A\00", align 1

; Function Attrs: nounwind uwtable
define void @dt_color_harmony_set(i32 noundef %0, i64 %1, i32 %2) #0 {
  %4 = alloca %struct._color_harmony_t, align 4
  %5 = alloca { i64, i32 }, align 4
  %6 = alloca i32, align 4
  %7 = alloca ptr, align 8
  %8 = alloca i32, align 4
  %9 = alloca i32, align 4
  %10 = alloca i32, align 4
  %11 = alloca i32, align 4
  %12 = alloca i32, align 4
  %13 = alloca i32, align 4
  %14 = getelementptr inbounds nuw { i64, i32 }, ptr %5, i32 0, i32 0
  store i64 %1, ptr %14, align 4
  %15 = getelementptr inbounds nuw { i64, i32 }, ptr %5, i32 0, i32 1
  store i32 %2, ptr %15, align 4
  call void @llvm.memcpy.p0.p0.i64(ptr align 4 %4, ptr align 4 %5, i64 12, i1 false)
  store i32 %0, ptr %6, align 4, !tbaa !16
  call void @llvm.lifetime.start.p0(i64 8, ptr %7) #5
  store ptr null, ptr %7, align 8, !tbaa !17
  %16 = getelementptr inbounds nuw %struct._color_harmony_t, ptr %4, i32 0, i32 0
  %17 = load i32, ptr %16, align 4, !tbaa !11
  %18 = icmp eq i32 %17, 0
  br i1 %18, label %19, label %48

19:                                               ; preds = %3
  br label %20

20:                                               ; preds = %19
  br label %21

21:                                               ; preds = %20
  %22 = load i32, ptr getelementptr inbounds nuw (%struct.darktable_t, ptr @darktable, i32 0, i32 2), align 8, !tbaa !19
  %23 = and i32 256, %22
  %24 = icmp ne i32 %23, 0
  br i1 %24, label %25, label %31

25:                                               ; preds = %21
  %26 = load i32, ptr getelementptr inbounds nuw (%struct.darktable_t, ptr @darktable, i32 0, i32 2), align 8, !tbaa !19
  %27 = xor i32 %26, -1
  %28 = and i32 0, %27
  %29 = icmp ne i32 %28, 0
  br i1 %29, label %31, label %30

30:                                               ; preds = %25
  call void (ptr, ...) @dt_print_ext(ptr noundef @.str, ptr noundef @.str.1, i32 noundef 40, ptr noundef @__FUNCTION__.dt_color_harmony_set, ptr noundef @.str.2)
  br label %31

31:                                               ; preds = %30, %25, %21
  br label %32

32:                                               ; preds = %31
  br label %33

33:                                               ; preds = %32
  call void @llvm.lifetime.start.p0(i64 4, ptr %8) #5
  %34 = load ptr, ptr getelementptr inbounds nuw (%struct.darktable_t, ptr @darktable, i32 0, i32 18), align 8, !tbaa !57
  %35 = call ptr @dt_database_get(ptr noundef %34)
  %36 = call i32 @sqlite3_prepare_v2(ptr noundef %35, ptr noundef @.str.2, i32 noundef -1, ptr noundef %7, ptr noundef null)
  store i32 %36, ptr %8, align 4, !tbaa !16
  %37 = load i32, ptr %8, align 4, !tbaa !16
  %38 = icmp ne i32 %37, 0
  br i1 %38, label %39, label %45

39:                                               ; preds = %33
  %40 = load ptr, ptr @stderr, align 8, !tbaa !58
  %41 = load ptr, ptr getelementptr inbounds nuw (%struct.darktable_t, ptr @darktable, i32 0, i32 18), align 8, !tbaa !57
  %42 = call ptr @dt_database_get(ptr noundef %41)
  %43 = call ptr @sqlite3_errmsg(ptr noundef %42)
  %44 = call i32 (ptr, ptr, ...) @fprintf(ptr noundef %40, ptr noundef @.str.3, ptr noundef @.str.1, i32 noundef 40, ptr noundef @__FUNCTION__.dt_color_harmony_set, ptr noundef @.str.2, ptr noundef %43) #5
  br label %45

45:                                               ; preds = %39, %33
  call void @llvm.lifetime.end.p0(i64 4, ptr %8) #5
  br label %46

46:                                               ; preds = %45
  br label %47

47:                                               ; preds = %46
  br label %116

48:                                               ; preds = %3
  br label %49

49:                                               ; preds = %48
  br label %50

50:                                               ; preds = %49
  %51 = load i32, ptr getelementptr inbounds nuw (%struct.darktable_t, ptr @darktable, i32 0, i32 2), align 8, !tbaa !19
  %52 = and i32 256, %51
  %53 = icmp ne i32 %52, 0
  br i1 %53, label %54, label %60

54:                                               ; preds = %50
  %55 = load i32, ptr getelementptr inbounds nuw (%struct.darktable_t, ptr @darktable, i32 0, i32 2), align 8, !tbaa !19
  %56 = xor i32 %55, -1
  %57 = and i32 0, %56
  %58 = icmp ne i32 %57, 0
  br i1 %58, label %60, label %59

59:                                               ; preds = %54
  call void (ptr, ...) @dt_print_ext(ptr noundef @.str, ptr noundef @.str.1, i32 noundef 49, ptr noundef @__FUNCTION__.dt_color_harmony_set, ptr noundef @.str.4)
  br label %60

60:                                               ; preds = %59, %54, %50
  br label %61

61:                                               ; preds = %60
  br label %62

62:                                               ; preds = %61
  call void @llvm.lifetime.start.p0(i64 4, ptr %9) #5
  %63 = load ptr, ptr getelementptr inbounds nuw (%struct.darktable_t, ptr @darktable, i32 0, i32 18), align 8, !tbaa !57
  %64 = call ptr @dt_database_get(ptr noundef %63)
  %65 = call i32 @sqlite3_prepare_v2(ptr noundef %64, ptr noundef @.str.4, i32 noundef -1, ptr noundef %7, ptr noundef null)
  store i32 %65, ptr %9, align 4, !tbaa !16
  %66 = load i32, ptr %9, align 4, !tbaa !16
  %67 = icmp ne i32 %66, 0
  br i1 %67, label %68, label %74

68:                                               ; preds = %62
  %69 = load ptr, ptr @stderr, align 8, !tbaa !58
  %70 = load ptr, ptr getelementptr inbounds nuw (%struct.darktable_t, ptr @darktable, i32 0, i32 18), align 8, !tbaa !57
  %71 = call ptr @dt_database_get(ptr noundef %70)
  %72 = call ptr @sqlite3_errmsg(ptr noundef %71)
  %73 = call i32 (ptr, ptr, ...) @fprintf(ptr noundef %69, ptr noundef @.str.3, ptr noundef @.str.1, i32 noundef 49, ptr noundef @__FUNCTION__.dt_color_harmony_set, ptr noundef @.str.4, ptr noundef %72) #5
  br label %74

74:                                               ; preds = %68, %62
  call void @llvm.lifetime.end.p0(i64 4, ptr %9) #5
  br label %75

75:                                               ; preds = %74
  br label %76

76:                                               ; preds = %75
  call void @llvm.lifetime.start.p0(i64 4, ptr %10) #5
  %77 = load ptr, ptr %7, align 8, !tbaa !17
  %78 = getelementptr inbounds nuw %struct._color_harmony_t, ptr %4, i32 0, i32 0
  %79 = load i32, ptr %78, align 4, !tbaa !11
  %80 = call i32 @sqlite3_bind_int(ptr noundef %77, i32 noundef 2, i32 noundef %79)
  store i32 %80, ptr %10, align 4, !tbaa !16
  %81 = load i32, ptr %10, align 4, !tbaa !16
  %82 = icmp ne i32 %81, 0
  br i1 %82, label %83, label %89

83:                                               ; preds = %76
  %84 = load ptr, ptr @stderr, align 8, !tbaa !58
  %85 = load ptr, ptr getelementptr inbounds nuw (%struct.darktable_t, ptr @darktable, i32 0, i32 18), align 8, !tbaa !57
  %86 = call ptr @dt_database_get(ptr noundef %85)
  %87 = call ptr @sqlite3_errmsg(ptr noundef %86)
  %88 = call i32 (ptr, ptr, ...) @fprintf(ptr noundef %84, ptr noundef @.str.5, ptr noundef @.str.1, i32 noundef 51, ptr noundef @__FUNCTION__.dt_color_harmony_set, ptr noundef %87) #5
  br label %89

89:                                               ; preds = %83, %76
  call void @llvm.lifetime.end.p0(i64 4, ptr %10) #5
  call void @llvm.lifetime.start.p0(i64 4, ptr %11) #5
  %90 = load ptr, ptr %7, align 8, !tbaa !17
  %91 = getelementptr inbounds nuw %struct._color_harmony_t, ptr %4, i32 0, i32 1
  %92 = load i32, ptr %91, align 4, !tbaa !14
  %93 = call i32 @sqlite3_bind_int(ptr noundef %90, i32 noundef 3, i32 noundef %92)
  store i32 %93, ptr %11, align 4, !tbaa !16
  %94 = load i32, ptr %11, align 4, !tbaa !16
  %95 = icmp ne i32 %94, 0
  br i1 %95, label %96, label %102

96:                                               ; preds = %89
  %97 = load ptr, ptr @stderr, align 8, !tbaa !58
  %98 = load ptr, ptr getelementptr inbounds nuw (%struct.darktable_t, ptr @darktable, i32 0, i32 18), align 8, !tbaa !57
  %99 = call ptr @dt_database_get(ptr noundef %98)
  %100 = call ptr @sqlite3_errmsg(ptr noundef %99)
  %101 = call i32 (ptr, ptr, ...) @fprintf(ptr noundef %97, ptr noundef @.str.5, ptr noundef @.str.1, i32 noundef 52, ptr noundef @__FUNCTION__.dt_color_harmony_set, ptr noundef %100) #5
  br label %102

102:                                              ; preds = %96, %89
  call void @llvm.lifetime.end.p0(i64 4, ptr %11) #5
  call void @llvm.lifetime.start.p0(i64 4, ptr %12) #5
  %103 = load ptr, ptr %7, align 8, !tbaa !17
  %104 = getelementptr inbounds nuw %struct._color_harmony_t, ptr %4, i32 0, i32 2
  %105 = load i32, ptr %104, align 4, !tbaa !15
  %106 = call i32 @sqlite3_bind_int(ptr noundef %103, i32 noundef 4, i32 noundef %105)
  store i32 %106, ptr %12, align 4, !tbaa !16
  %107 = load i32, ptr %12, align 4, !tbaa !16
  %108 = icmp ne i32 %107, 0
  br i1 %108, label %109, label %115

109:                                              ; preds = %102
  %110 = load ptr, ptr @stderr, align 8, !tbaa !58
  %111 = load ptr, ptr getelementptr inbounds nuw (%struct.darktable_t, ptr @darktable, i32 0, i32 18), align 8, !tbaa !57
  %112 = call ptr @dt_database_get(ptr noundef %111)
  %113 = call ptr @sqlite3_errmsg(ptr noundef %112)
  %114 = call i32 (ptr, ptr, ...) @fprintf(ptr noundef %110, ptr noundef @.str.5, ptr noundef @.str.1, i32 noundef 53, ptr noundef @__FUNCTION__.dt_color_harmony_set, ptr noundef %113) #5
  br label %115

115:                                              ; preds = %109, %102
  call void @llvm.lifetime.end.p0(i64 4, ptr %12) #5
  br label %116

116:                                              ; preds = %115, %47
  call void @llvm.lifetime.start.p0(i64 4, ptr %13) #5
  %117 = load ptr, ptr %7, align 8, !tbaa !17
  %118 = load i32, ptr %6, align 4, !tbaa !16
  %119 = call i32 @sqlite3_bind_int(ptr noundef %117, i32 noundef 1, i32 noundef %118)
  store i32 %119, ptr %13, align 4, !tbaa !16
  %120 = load i32, ptr %13, align 4, !tbaa !16
  %121 = icmp ne i32 %120, 0
  br i1 %121, label %122, label %128

122:                                              ; preds = %116
  %123 = load ptr, ptr @stderr, align 8, !tbaa !58
  %124 = load ptr, ptr getelementptr inbounds nuw (%struct.darktable_t, ptr @darktable, i32 0, i32 18), align 8, !tbaa !57
  %125 = call ptr @dt_database_get(ptr noundef %124)
  %126 = call ptr @sqlite3_errmsg(ptr noundef %125)
  %127 = call i32 (ptr, ptr, ...) @fprintf(ptr noundef %123, ptr noundef @.str.5, ptr noundef @.str.1, i32 noundef 56, ptr noundef @__FUNCTION__.dt_color_harmony_set, ptr noundef %126) #5
  br label %128

128:                                              ; preds = %122, %116
  call void @llvm.lifetime.end.p0(i64 4, ptr %13) #5
  %129 = load ptr, ptr %7, align 8, !tbaa !17
  %130 = call i32 @sqlite3_step(ptr noundef %129)
  %131 = load ptr, ptr %7, align 8, !tbaa !17
  %132 = call i32 @sqlite3_finalize(ptr noundef %131)
  call void @llvm.lifetime.end.p0(i64 8, ptr %7) #5
  ret void
}