; Function Attrs: nounwind uwtable
define void @dt_color_harmony_set(i32 noundef %0, i64 %1, i32 %2) local_unnamed_addr #1 {
  %4 = alloca ptr, align 8
  %.sroa.07.0.extract.trunc = trunc i64 %1 to i32
  %.sroa.3.0.extract.shift = lshr i64 %1, 32
  %.sroa.3.0.extract.trunc = trunc nuw i64 %.sroa.3.0.extract.shift to i32
  call void @llvm.lifetime.start.p0(i64 8, ptr nonnull %4) #5
  store ptr null, ptr %4, align 8, !tbaa !13
  %5 = icmp eq i32 %.sroa.07.0.extract.trunc, 0
  %6 = load i32, ptr getelementptr inbounds nuw (i8, ptr @darktable, i64 8), align 8, !tbaa !16
  %7 = and i32 %6, 256
  %.not13 = icmp eq i32 %7, 0
  br i1 %5, label %8, label %20

8:                                                ; preds = %3
  br i1 %.not13, label %10, label %9

9:                                                ; preds = %8
  tail call void (ptr, ...) @dt_print_ext(ptr noundef nonnull @.str, ptr noundef nonnull @.str.1, i32 noundef 40, ptr noundef nonnull @__FUNCTION__.dt_color_harmony_set, ptr noundef nonnull @.str.2) #5
  br label %10

10:                                               ; preds = %9, %8
  %11 = load ptr, ptr getelementptr inbounds nuw (i8, ptr @darktable, i64 136), align 8, !tbaa !54
  %12 = tail call ptr @dt_database_get(ptr noundef %11) #5
  %13 = call i32 @sqlite3_prepare_v2(ptr noundef %12, ptr noundef nonnull @.str.2, i32 noundef -1, ptr noundef nonnull %4, ptr noundef null) #5
  %.not14 = icmp eq i32 %13, 0
  br i1 %.not14, label %59, label %14

14:                                               ; preds = %10
  %15 = load ptr, ptr @stderr, align 8, !tbaa !55
  %16 = load ptr, ptr getelementptr inbounds nuw (i8, ptr @darktable, i64 136), align 8, !tbaa !54
  %17 = call ptr @dt_database_get(ptr noundef %16) #5
  %18 = call ptr @sqlite3_errmsg(ptr noundef %17) #5
  %19 = call i32 (ptr, ptr, ...) @fprintf(ptr noundef %15, ptr noundef nonnull @.str.3, ptr noundef nonnull @.str.1, i32 noundef 40, ptr noundef nonnull @__FUNCTION__.dt_color_harmony_set, ptr noundef nonnull @.str.2, ptr noundef %18) #6
  br label %59

20:                                               ; preds = %3
  br i1 %.not13, label %22, label %21

21:                                               ; preds = %20
  tail call void (ptr, ...) @dt_print_ext(ptr noundef nonnull @.str, ptr noundef nonnull @.str.1, i32 noundef 49, ptr noundef nonnull @__FUNCTION__.dt_color_harmony_set, ptr noundef nonnull @.str.4) #5
  br label %22

22:                                               ; preds = %21, %20
  %23 = load ptr, ptr getelementptr inbounds nuw (i8, ptr @darktable, i64 136), align 8, !tbaa !54
  %24 = tail call ptr @dt_database_get(ptr noundef %23) #5
  %25 = call i32 @sqlite3_prepare_v2(ptr noundef %24, ptr noundef nonnull @.str.4, i32 noundef -1, ptr noundef nonnull %4, ptr noundef null) #5
  %.not9 = icmp eq i32 %25, 0
  br i1 %.not9, label %32, label %26

26:                                               ; preds = %22
  %27 = load ptr, ptr @stderr, align 8, !tbaa !55
  %28 = load ptr, ptr getelementptr inbounds nuw (i8, ptr @darktable, i64 136), align 8, !tbaa !54
  %29 = call ptr @dt_database_get(ptr noundef %28) #5
  %30 = call ptr @sqlite3_errmsg(ptr noundef %29) #5
  %31 = call i32 (ptr, ptr, ...) @fprintf(ptr noundef %27, ptr noundef nonnull @.str.3, ptr noundef nonnull @.str.1, i32 noundef 49, ptr noundef nonnull @__FUNCTION__.dt_color_harmony_set, ptr noundef nonnull @.str.4, ptr noundef %30) #6
  br label %32

32:                                               ; preds = %26, %22
  %33 = load ptr, ptr %4, align 8, !tbaa !13
  %34 = call i32 @sqlite3_bind_int(ptr noundef %33, i32 noundef 2, i32 noundef %.sroa.07.0.extract.trunc) #5
  %.not10 = icmp eq i32 %34, 0
  br i1 %.not10, label %41, label %35

35:                                               ; preds = %32
  %36 = load ptr, ptr @stderr, align 8, !tbaa !55
  %37 = load ptr, ptr getelementptr inbounds nuw (i8, ptr @darktable, i64 136), align 8, !tbaa !54
  %38 = call ptr @dt_database_get(ptr noundef %37) #5
  %39 = call ptr @sqlite3_errmsg(ptr noundef %38) #5
  %40 = call i32 (ptr, ptr, ...) @fprintf(ptr noundef %36, ptr noundef nonnull @.str.5, ptr noundef nonnull @.str.1, i32 noundef 51, ptr noundef nonnull @__FUNCTION__.dt_color_harmony_set, ptr noundef %39) #6
  br label %41

41:                                               ; preds = %35, %32
  %42 = load ptr, ptr %4, align 8, !tbaa !13
  %43 = call i32 @sqlite3_bind_int(ptr noundef %42, i32 noundef 3, i32 noundef %.sroa.3.0.extract.trunc) #5
  %.not11 = icmp eq i32 %43, 0
  br i1 %.not11, label %50, label %44

44:                                               ; preds = %41
  %45 = load ptr, ptr @stderr, align 8, !tbaa !55
  %46 = load ptr, ptr getelementptr inbounds nuw (i8, ptr @darktable, i64 136), align 8, !tbaa !54
  %47 = call ptr @dt_database_get(ptr noundef %46) #5
  %48 = call ptr @sqlite3_errmsg(ptr noundef %47) #5
  %49 = call i32 (ptr, ptr, ...) @fprintf(ptr noundef %45, ptr noundef nonnull @.str.5, ptr noundef nonnull @.str.1, i32 noundef 52, ptr noundef nonnull @__FUNCTION__.dt_color_harmony_set, ptr noundef %48) #6
  br label %50

50:                                               ; preds = %44, %41
  %51 = load ptr, ptr %4, align 8, !tbaa !13
  %52 = call i32 @sqlite3_bind_int(ptr noundef %51, i32 noundef 4, i32 noundef %2) #5
  %.not12 = icmp eq i32 %52, 0
  br i1 %.not12, label %59, label %53

53:                                               ; preds = %50
  %54 = load ptr, ptr @stderr, align 8, !tbaa !55
  %55 = load ptr, ptr getelementptr inbounds nuw (i8, ptr @darktable, i64 136), align 8, !tbaa !54
  %56 = call ptr @dt_database_get(ptr noundef %55) #5
  %57 = call ptr @sqlite3_errmsg(ptr noundef %56) #5
  %58 = call i32 (ptr, ptr, ...) @fprintf(ptr noundef %54, ptr noundef nonnull @.str.5, ptr noundef nonnull @.str.1, i32 noundef 53, ptr noundef nonnull @__FUNCTION__.dt_color_harmony_set, ptr noundef %57) #6
  br label %59

59:                                               ; preds = %50, %53, %10, %14
  %60 = load ptr, ptr %4, align 8, !tbaa !13
  %61 = call i32 @sqlite3_bind_int(ptr noundef %60, i32 noundef 1, i32 noundef %0) #5
  %.not15 = icmp eq i32 %61, 0
  br i1 %.not15, label %68, label %62

62:                                               ; preds = %59
  %63 = load ptr, ptr @stderr, align 8, !tbaa !55
  %64 = load ptr, ptr getelementptr inbounds nuw (i8, ptr @darktable, i64 136), align 8, !tbaa !54
  %65 = call ptr @dt_database_get(ptr noundef %64) #5
  %66 = call ptr @sqlite3_errmsg(ptr noundef %65) #5
  %67 = call i32 (ptr, ptr, ...) @fprintf(ptr noundef %63, ptr noundef nonnull @.str.5, ptr noundef nonnull @.str.1, i32 noundef 56, ptr noundef nonnull @__FUNCTION__.dt_color_harmony_set, ptr noundef %66) #6
  br label %68

68:                                               ; preds = %62, %59
  %69 = load ptr, ptr %4, align 8, !tbaa !13
  %70 = call i32 @sqlite3_step(ptr noundef %69) #5
  %71 = load ptr, ptr %4, align 8, !tbaa !13
  %72 = call i32 @sqlite3_finalize(ptr noundef %71) #5
  call void @llvm.lifetime.end.p0(i64 8, ptr nonnull %4) #5
  ret void
}